target datalayout = "e-m:e-p270:32:32-p271:32:32-p272:64:64-i64:64-i128:128-f80:128-n8:16:32:64-S128"
target triple = "x86_64-pc-linux-gnu"

%"struct.OpenColorIO_v2_5dev::CPUInfo" = type <{ i32, i32, i32, [65 x i8], [13 x i8], [2 x i8] }>

; Function Attrs: mustprogress nounwind uwtable
define linkonce_odr hidden noundef zeroext i1 @_ZNK19OpenColorIO_v2_5dev7CPUInfo7hasF16CEv(ptr noundef nonnull align 4 dereferenceable(90) %0) #7 comdat align 2 {
  %2 = alloca ptr, align 8
  store ptr %0, ptr %2, align 8, !tbaa !37
  %3 = load ptr, ptr %2, align 8
  %4 = getelementptr inbounds nuw %"struct.OpenColorIO_v2_5dev::CPUInfo", ptr %3, i32 0, i32 0
  %5 = load i32, ptr %4, align 4, !tbaa !39
  %6 = and i32 %5, 8192
  %7 = icmp ne i32 %6, 0
  ret i1 %7
}

; Function Attrs: inlinehint mustprogress uwtable
define internal noundef ptr @_ZN19OpenColorIO_v2_5dev12_GLOBAL__N_120GetConvertInBitDepthILNS_8BitDepthE8EEEPFvPKfS4_S4_iPKvPvlES2_(i32 noundef %0) #5 {
  %2 = alloca ptr, align 8
  %3 = alloca i32, align 4
  store i32 %0, ptr %3, align 4, !tbaa !3
  %4 = load i32, ptr %3, align 4, !tbaa !3
  switch i32 %4, label %16 [
    i32 1, label %5
    i32 2, label %6
    i32 3, label %7
    i32 5, label %8
    i32 7, label %9
    i32 8, label %14
    i32 4, label %15
    i32 6, label %15
    i32 0, label %15
  ]

5:                                                ; preds = %1
  store ptr @_ZN19OpenColorIO_v2_5dev12_GLOBAL__N_18linear1DILNS_8BitDepthE8ELS2_1EEEvPKfS4_S4_iPKvPvl, ptr %2, align 8
  br label %18

6:                                                ; preds = %1
  store ptr @_ZN19OpenColorIO_v2_5dev12_GLOBAL__N_18linear1DILNS_8BitDepthE8ELS2_2EEEvPKfS4_S4_iPKvPvl, ptr %2, align 8
  br label %18

7:                                                ; preds = %1
  store ptr @_ZN19OpenColorIO_v2_5dev12_GLOBAL__N_18linear1DILNS_8BitDepthE8ELS2_3EEEvPKfS4_S4_iPKvPvl, ptr %2, align 8
  br label %18

8:                                                ; preds = %1
  store ptr @_ZN19OpenColorIO_v2_5dev12_GLOBAL__N_18linear1DILNS_8BitDepthE8ELS2_5EEEvPKfS4_S4_iPKvPvl, ptr %2, align 8
  br label %18

9:                                                ; preds = %1
  %10 = call noundef nonnull align 4 dereferenceable(90) ptr @_ZN19OpenColorIO_v2_5dev7CPUInfo8instanceEv()
  %11 = call noundef zeroext i1 @_ZNK19OpenColorIO_v2_5dev7CPUInfo7hasF16CEv(ptr noundef nonnull align 4 dereferenceable(90) %10)
  br i1 %11, label %12, label %13

12:                                               ; preds = %9
  store ptr @_ZN19OpenColorIO_v2_5dev12_GLOBAL__N_18linear1DILNS_8BitDepthE8ELS2_7EEEvPKfS4_S4_iPKvPvl, ptr %2, align 8
  br label %18

13:                                               ; preds = %9
  br label %17

14:                                               ; preds = %1
  store ptr @_ZN19OpenColorIO_v2_5dev12_GLOBAL__N_18linear1DILNS_8BitDepthE8ELS2_8EEEvPKfS4_S4_iPKvPvl, ptr %2, align 8
  br label %18

15:                                               ; preds = %1, %1, %1
  br label %16

16:                                               ; preds = %1, %15
  br label %17

17:                                               ; preds = %16, %13
  store ptr null, ptr %2, align 8
  br label %18

18:                                               ; preds = %17, %14, %12, %8, %7, %6, %5
  %19 = load ptr, ptr %2, align 8
  ret ptr %19
}

; Function Attrs: mustprogress uwtable
define hidden noundef ptr @_ZN19OpenColorIO_v2_5dev21AVX2GetLut1DApplyFuncENS_8BitDepthES0_(i32 noundef %0, i32 noundef %1) #4 {
  %3 = alloca ptr, align 8
  %4 = alloca i32, align 4
  %5 = alloca i32, align 4
  store i32 %0, ptr %4, align 4, !tbaa !3
  store i32 %1, ptr %5, align 4, !tbaa !3
  %6 = load i32, ptr %4, align 4, !tbaa !3
  switch i32 %6, label %12 [
    i32 1, label %7
    i32 2, label %7
    i32 3, label %7
    i32 5, label %7
    i32 7, label %7
    i32 8, label %8
    i32 4, label %11
    i32 6, label %11
    i32 0, label %11
  ]

7:                                                ; preds = %2, %2, %2, %2, %2
  br label %13

8:                                                ; preds = %2
  %9 = load i32, ptr %5, align 4, !tbaa !3
  %10 = call noundef ptr @_ZN19OpenColorIO_v2_5dev12_GLOBAL__N_120GetConvertInBitDepthILNS_8BitDepthE8EEEPFvPKfS4_S4_iPKvPvlES2_(i32 noundef %9)
  store ptr %10, ptr %3, align 8
  br label %14

11:                                               ; preds = %2, %2, %2
  br label %12

12:                                               ; preds = %2, %11
  br label %13

13:                                               ; preds = %12, %7
  store ptr null, ptr %3, align 8
  br label %14

14:                                               ; preds = %13, %8
  %15 = load ptr, ptr %3, align 8
  ret ptr %15
}